target datalayout = "e-m:e-p270:32:32-p271:32:32-p272:64:64-i64:64-i128:128-f80:128-n8:16:32:64-S128"
target triple = "x86_64-unknown-linux-gnu"

%"class.std::__cxx11::basic_string" = type { %"struct.std::__cxx11::basic_string<char>::_Alloc_hider", i64, %union.anon }
%"struct.std::__cxx11::basic_string<char>::_Alloc_hider" = type { ptr }
%union.anon = type { i64, [8 x i8] }
%"struct.rocksdb::EnvOptions" = type { i8, i8, i8, i8, i8, i8, i64, i8, i8, i64, i64, i64, ptr }
%"class.rocksdb::PosixMmapFile" = type <{ %"class.rocksdb::FSWritableFile.base", [7 x i8], %"class.std::__cxx11::basic_string", i32, [4 x i8], i64, i64, ptr, ptr, ptr, ptr, i64, i8, i8, [6 x i8] }>
%"class.rocksdb::FSWritableFile.base" = type <{ ptr, i64, i64, i32, i32, i8 }>
%"class.rocksdb::FSWritableFile" = type <{ ptr, i64, i64, i32, i32, i8, [7 x i8] }>

; Function Attrs: mustprogress nounwind uwtable
define linkonce_odr void @_ZN7rocksdb14FSWritableFileD2Ev(ptr noundef nonnull align 8 dereferenceable(33) %this) unnamed_addr #3 comdat align 2 {
entry:
  %this.addr = alloca ptr, align 8
  store ptr %this, ptr %this.addr, align 8
  ret void
}

; Function Attrs: mustprogress nounwind uwtable
define linkonce_odr noundef i64 @_ZN7rocksdb13PosixMmapFile7RoundupEmm(i64 noundef %x, i64 noundef %y) #3 comdat align 2 {
entry:
  %x.addr = alloca i64, align 8
  %y.addr = alloca i64, align 8
  store i64 %x, ptr %x.addr, align 8
  store i64 %y, ptr %y.addr, align 8
  %0 = load i64, ptr %x.addr, align 8
  %1 = load i64, ptr %y.addr, align 8
  %add = add i64 %0, %1
  %sub = sub i64 %add, 1
  %2 = load i64, ptr %y.addr, align 8
  %div = udiv i64 %sub, %2
  %3 = load i64, ptr %y.addr, align 8
  %mul = mul i64 %div, %3
  ret i64 %mul
}

; Function Attrs: mustprogress nounwind uwtable
define linkonce_odr void @_ZN7rocksdb14FSWritableFileC2Ev(ptr noundef nonnull align 8 dereferenceable(33) %this) unnamed_addr #3 comdat align 2 {
entry:
  %this.addr = alloca ptr, align 8
  store ptr %this, ptr %this.addr, align 8
  %this1 = load ptr, ptr %this.addr, align 8
  store ptr getelementptr inbounds ({ [28 x ptr] }, ptr @_ZTVN7rocksdb14FSWritableFileE, i32 0, i32 0, i32 2), ptr %this1, align 8
  %last_preallocated_block_ = getelementptr inbounds %"class.rocksdb::FSWritableFile", ptr %this1, i32 0, i32 1
  store i64 0, ptr %last_preallocated_block_, align 8
  %preallocation_block_size_ = getelementptr inbounds %"class.rocksdb::FSWritableFile", ptr %this1, i32 0, i32 2
  store i64 0, ptr %preallocation_block_size_, align 8
  %io_priority_ = getelementptr inbounds %"class.rocksdb::FSWritableFile", ptr %this1, i32 0, i32 3
  store i32 4, ptr %io_priority_, align 8
  %write_hint_ = getelementptr inbounds %"class.rocksdb::FSWritableFile", ptr %this1, i32 0, i32 4
  store i32 0, ptr %write_hint_, align 4
  %strict_bytes_per_sync_ = getelementptr inbounds %"class.rocksdb::FSWritableFile", ptr %this1, i32 0, i32 5
  store i8 0, ptr %strict_bytes_per_sync_, align 8
  ret void
}

; Function Attrs: mustprogress uwtable
define void @_ZN7rocksdb13PosixMmapFileC2ERKNSt7__cxx1112basic_stringIcSt11char_traitsIcESaIcEEEimRKNS_10EnvOptionsE(ptr noundef nonnull align 8 dereferenceable(138) %this, ptr noundef nonnull align 8 dereferenceable(32) %fname, i32 noundef %fd, i64 noundef %page_size, ptr noundef nonnull align 8 dereferenceable(56) %options) unnamed_addr #0 align 2 personality ptr @__gxx_personality_v0 {
entry:
  %this.addr = alloca ptr, align 8
  %fname.addr = alloca ptr, align 8
  %fd.addr = alloca i32, align 4
  %page_size.addr = alloca i64, align 8
  %options.addr = alloca ptr, align 8
  %exn.slot = alloca ptr, align 8
  %ehselector.slot = alloca i32, align 4
  store ptr %this, ptr %this.addr, align 8
  store ptr %fname, ptr %fname.addr, align 8
  store i32 %fd, ptr %fd.addr, align 4
  store i64 %page_size, ptr %page_size.addr, align 8
  store ptr %options, ptr %options.addr, align 8
  %this1 = load ptr, ptr %this.addr, align 8
  call void @_ZN7rocksdb14FSWritableFileC2Ev(ptr noundef nonnull align 8 dereferenceable(33) %this1)
  store ptr getelementptr inbounds ({ [28 x ptr] }, ptr @_ZTVN7rocksdb13PosixMmapFileE, i32 0, i32 0, i32 2), ptr %this1, align 8
  %filename_ = getelementptr inbounds %"class.rocksdb::PosixMmapFile", ptr %this1, i32 0, i32 2
  %0 = load ptr, ptr %fname.addr, align 8
  invoke void @_ZNSt7__cxx1112basic_stringIcSt11char_traitsIcESaIcEEC1ERKS4_(ptr noundef nonnull align 8 dereferenceable(32) %filename_, ptr noundef nonnull align 8 dereferenceable(32) %0)
          to label %invoke.cont unwind label %lpad

invoke.cont:                                      ; preds = %entry
  %fd_ = getelementptr inbounds %"class.rocksdb::PosixMmapFile", ptr %this1, i32 0, i32 3
  %1 = load i32, ptr %fd.addr, align 4
  store i32 %1, ptr %fd_, align 8
  %page_size_ = getelementptr inbounds %"class.rocksdb::PosixMmapFile", ptr %this1, i32 0, i32 5
  %2 = load i64, ptr %page_size.addr, align 8
  store i64 %2, ptr %page_size_, align 8
  %map_size_ = getelementptr inbounds %"class.rocksdb::PosixMmapFile", ptr %this1, i32 0, i32 6
  %3 = load i64, ptr %page_size.addr, align 8
  %call = invoke noundef i64 @_ZN7rocksdb13PosixMmapFile7RoundupEmm(i64 noundef 65536, i64 noundef %3)
          to label %invoke.cont3 unwind label %lpad2

invoke.cont3:                                     ; preds = %invoke.cont
  store i64 %call, ptr %map_size_, align 8
  %base_ = getelementptr inbounds %"class.rocksdb::PosixMmapFile", ptr %this1, i32 0, i32 7
  store ptr null, ptr %base_, align 8
  %limit_ = getelementptr inbounds %"class.rocksdb::PosixMmapFile", ptr %this1, i32 0, i32 8
  store ptr null, ptr %limit_, align 8
  %dst_ = getelementptr inbounds %"class.rocksdb::PosixMmapFile", ptr %this1, i32 0, i32 9
  store ptr null, ptr %dst_, align 8
  %last_sync_ = getelementptr inbounds %"class.rocksdb::PosixMmapFile", ptr %this1, i32 0, i32 10
  store ptr null, ptr %last_sync_, align 8
  %file_offset_ = getelementptr inbounds %"class.rocksdb::PosixMmapFile", ptr %this1, i32 0, i32 11
  store i64 0, ptr %file_offset_, align 8
  %4 = load ptr, ptr %options.addr, align 8
  %allow_fallocate = getelementptr inbounds %"struct.rocksdb::EnvOptions", ptr %4, i32 0, i32 4
  %5 = load i8, ptr %allow_fallocate, align 4
  %tobool = trunc i8 %5 to i1
  %allow_fallocate_ = getelementptr inbounds %"class.rocksdb::PosixMmapFile", ptr %this1, i32 0, i32 12
  %frombool = zext i1 %tobool to i8
  store i8 %frombool, ptr %allow_fallocate_, align 8
  %6 = load ptr, ptr %options.addr, align 8
  %fallocate_with_keep_size = getelementptr inbounds %"struct.rocksdb::EnvOptions", ptr %6, i32 0, i32 8
  %7 = load i8, ptr %fallocate_with_keep_size, align 1
  %tobool4 = trunc i8 %7 to i1
  %fallocate_with_keep_size_ = getelementptr inbounds %"class.rocksdb::PosixMmapFile", ptr %this1, i32 0, i32 13
  %frombool5 = zext i1 %tobool4 to i8
  store i8 %frombool5, ptr %fallocate_with_keep_size_, align 1
  ret void

lpad:                                             ; preds = %entry
  %8 = landingpad { ptr, i32 }
          cleanup
  %9 = extractvalue { ptr, i32 } %8, 0
  store ptr %9, ptr %exn.slot, align 8
  %10 = extractvalue { ptr, i32 } %8, 1
  store i32 %10, ptr %ehselector.slot, align 4
  br label %ehcleanup

lpad2:                                            ; preds = %invoke.cont
  %11 = landingpad { ptr, i32 }
          cleanup
  %12 = extractvalue { ptr, i32 } %11, 0
  store ptr %12, ptr %exn.slot, align 8
  %13 = extractvalue { ptr, i32 } %11, 1
  store i32 %13, ptr %ehselector.slot, align 4
  call void @_ZNSt7__cxx1112basic_stringIcSt11char_traitsIcESaIcEED1Ev(ptr noundef nonnull align 8 dereferenceable(32) %filename_) #15
  br label %ehcleanup

ehcleanup:                                        ; preds = %lpad2, %lpad
  call void @_ZN7rocksdb14FSWritableFileD2Ev(ptr noundef nonnull align 8 dereferenceable(33) %this1) #15
  br label %eh.resume

eh.resume:                                        ; preds = %ehcleanup
  %exn = load ptr, ptr %exn.slot, align 8
  %sel = load i32, ptr %ehselector.slot, align 4
  %lpad.val = insertvalue { ptr, i32 } poison, ptr %exn, 0
  %lpad.val6 = insertvalue { ptr, i32 } %lpad.val, i32 %sel, 1
  resume { ptr, i32 } %lpad.val6
}