; Function Attrs: mustprogress uwtable
define void @_ZN7rocksdb13PosixMmapFileC2ERKNSt7__cxx1112basic_stringIcSt11char_traitsIcESaIcEEEimRKNS_10EnvOptionsE(ptr noundef nonnull align 8 dereferenceable(138) %this, ptr noundef nonnull align 8 dereferenceable(32) %fname, i32 noundef %fd, i64 noundef %page_size, ptr nocapture noundef nonnull readonly align 8 dereferenceable(56) %options) unnamed_addr #0 align 2 personality ptr @__gxx_personality_v0 {
entry:
  %last_preallocated_block_.i = getelementptr inbounds i8, ptr %this, i64 8
  %io_priority_.i = getelementptr inbounds i8, ptr %this, i64 24
  tail call void @llvm.memset.p0.i64(ptr noundef nonnull align 8 dereferenceable(16) %last_preallocated_block_.i, i8 0, i64 16, i1 false)
  store i32 4, ptr %io_priority_.i, align 8
  %write_hint_.i = getelementptr inbounds i8, ptr %this, i64 28
  store i32 0, ptr %write_hint_.i, align 4
  %strict_bytes_per_sync_.i = getelementptr inbounds i8, ptr %this, i64 32
  store i8 0, ptr %strict_bytes_per_sync_.i, align 8
  store ptr getelementptr inbounds ({ [28 x ptr] }, ptr @_ZTVN7rocksdb13PosixMmapFileE, i64 0, i32 0, i64 2), ptr %this, align 8
  %filename_ = getelementptr inbounds i8, ptr %this, i64 40
  tail call void @_ZNSt7__cxx1112basic_stringIcSt11char_traitsIcESaIcEEC1ERKS4_(ptr noundef nonnull align 8 dereferenceable(32) %filename_, ptr noundef nonnull align 8 dereferenceable(32) %fname)
  %fd_ = getelementptr inbounds i8, ptr %this, i64 72
  store i32 %fd, ptr %fd_, align 8
  %page_size_ = getelementptr inbounds i8, ptr %this, i64 80
  store i64 %page_size, ptr %page_size_, align 8
  %map_size_ = getelementptr inbounds i8, ptr %this, i64 88
  %sub.i = add i64 %page_size, 65535
  %0 = urem i64 %sub.i, %page_size
  %mul.i = sub nuw i64 %sub.i, %0
  store i64 %mul.i, ptr %map_size_, align 8
  %base_ = getelementptr inbounds i8, ptr %this, i64 96
  %allow_fallocate = getelementptr inbounds i8, ptr %options, i64 4
  tail call void @llvm.memset.p0.i64(ptr noundef nonnull align 8 dereferenceable(40) %base_, i8 0, i64 40, i1 false)
  %1 = load i8, ptr %allow_fallocate, align 4
  %2 = and i8 %1, 1
  %allow_fallocate_ = getelementptr inbounds i8, ptr %this, i64 136
  store i8 %2, ptr %allow_fallocate_, align 8
  %fallocate_with_keep_size = getelementptr inbounds i8, ptr %options, i64 17
  %3 = load i8, ptr %fallocate_with_keep_size, align 1
  %4 = and i8 %3, 1
  %fallocate_with_keep_size_ = getelementptr inbounds i8, ptr %this, i64 137
  store i8 %4, ptr %fallocate_with_keep_size_, align 1
  ret void
}